; Function Attrs: nounwind uwtable
define void @Nwk_ManStrashNode_rec(ptr noundef %0, ptr noundef captures(none) %1) local_unnamed_addr #0 {
  %3 = getelementptr i8, ptr %1, i64 32
  %.val = load i32, ptr %3, align 8
  %4 = and i32 %.val, 22
  %or.cond = icmp eq i32 %4, 4
  br i1 %or.cond, label %5, label %37

5:                                                ; preds = %2
  %6 = getelementptr i8, ptr %1, i64 16
  %.val13 = load ptr, ptr %6, align 8, !tbaa !3
  %7 = ptrtoint ptr %.val13 to i64
  %8 = and i64 %7, -2
  %9 = inttoptr i64 %8 to ptr
  tail call void @Nwk_ManStrashNode_rec(ptr noundef %0, ptr noundef %9)
  %10 = getelementptr i8, ptr %1, i64 24
  %.val14 = load ptr, ptr %10, align 8, !tbaa !10
  %11 = ptrtoint ptr %.val14 to i64
  %12 = and i64 %11, -2
  %13 = inttoptr i64 %12 to ptr
  tail call void @Nwk_ManStrashNode_rec(ptr noundef %0, ptr noundef %13)
  %.val15 = load ptr, ptr %6, align 8, !tbaa !3
  %14 = ptrtoint ptr %.val15 to i64
  %15 = and i64 %14, -2
  %.not.i = icmp eq i64 %15, 0
  br i1 %.not.i, label %Hop_ObjChild0Copy.exit, label %16

16:                                               ; preds = %5
  %17 = inttoptr i64 %15 to ptr
  %18 = load ptr, ptr %17, align 8, !tbaa !11
  %19 = and i64 %14, 1
  %20 = ptrtoint ptr %18 to i64
  %21 = xor i64 %19, %20
  %22 = inttoptr i64 %21 to ptr
  br label %Hop_ObjChild0Copy.exit

Hop_ObjChild0Copy.exit:                           ; preds = %5, %16
  %23 = phi ptr [ %22, %16 ], [ null, %5 ]
  %.val16 = load ptr, ptr %10, align 8, !tbaa !10
  %24 = ptrtoint ptr %.val16 to i64
  %25 = and i64 %24, -2
  %.not.i17 = icmp eq i64 %25, 0
  br i1 %.not.i17, label %Hop_ObjChild1Copy.exit, label %26

26:                                               ; preds = %Hop_ObjChild0Copy.exit
  %27 = inttoptr i64 %25 to ptr
  %28 = load ptr, ptr %27, align 8, !tbaa !11
  %29 = and i64 %24, 1
  %30 = ptrtoint ptr %28 to i64
  %31 = xor i64 %29, %30
  %32 = inttoptr i64 %31 to ptr
  br label %Hop_ObjChild1Copy.exit

Hop_ObjChild1Copy.exit:                           ; preds = %Hop_ObjChild0Copy.exit, %26
  %33 = phi ptr [ %32, %26 ], [ null, %Hop_ObjChild0Copy.exit ]
  %34 = tail call ptr @Aig_And(ptr noundef %0, ptr noundef %23, ptr noundef %33) #6
  store ptr %34, ptr %1, align 8, !tbaa !11
  %35 = load i32, ptr %3, align 8
  %36 = or i32 %35, 16
  store i32 %36, ptr %3, align 8
  br label %37

37:                                               ; preds = %2, %Hop_ObjChild1Copy.exit
  ret void
}